target datalayout = "e-m:e-p270:32:32-p271:32:32-p272:64:64-i64:64-i128:128-f80:128-n8:16:32:64-S128"
target triple = "x86_64-pc-linux-gnu"

%class.ref_vector_core = type { %class.ref_manager_wrapper, %class.ptr_vector.27 }
%class.ref_manager_wrapper = type { ptr }
%class.ptr_vector.27 = type { %class.vector.28 }
%class.vector.28 = type { ptr }
%class.params_ref = type { ptr }
%"class.demodulator_rewriter_util::plugin" = type { ptr }
%class.demodulator_rewriter_util = type { ptr, %"class.std::function", %class.th_rewriter, %class.ref_buffer, %class.array_map, %class.ref_buffer, %class.ref_vector }
%"class.std::function" = type { %"class.std::_Function_base", ptr }
%"class.std::_Function_base" = type { %"union.std::_Any_data", ptr }
%"union.std::_Any_data" = type { %"union.std::_Nocopy_types" }
%"union.std::_Nocopy_types" = type { { i64, i64 } }
%class.th_rewriter = type { ptr, %class.params_ref }
%class.array_map = type { i32, i32, i32, %class.vector.29, %"class.demodulator_rewriter_util::plugin" }
%class.vector.29 = type { ptr }
%class.ref_buffer = type { %class.ref_buffer_core }
%class.ref_buffer_core = type { %class.ref_manager_wrapper, %class.ptr_buffer }
%class.ptr_buffer = type { %class.buffer }
%class.buffer = type { ptr, i32, i32, [128 x i8] }
%class.ref_vector = type { %class.ref_vector_core }
%"struct.std::pair" = type <{ ptr, i8, [7 x i8] }>

; Function Attrs: mustprogress nounwind uwtable
define linkonce_odr hidden void @_ZNSt4pairIP4exprbEC2IRS1_RbQcl16_S_constructibleITL0__TL0_0_EEEEOT_OT0_(ptr noundef nonnull align 8 dereferenceable(9) %0, ptr noundef nonnull align 8 dereferenceable(8) %1, ptr noundef nonnull align 1 dereferenceable(1) %2) unnamed_addr #7 comdat align 2 {
  %4 = alloca ptr, align 8
  %5 = alloca ptr, align 8
  %6 = alloca ptr, align 8
  store ptr %0, ptr %4, align 8, !tbaa !174
  store ptr %1, ptr %5, align 8, !tbaa !51
  store ptr %2, ptr %6, align 8, !tbaa !185
  %7 = load ptr, ptr %4, align 8
  %8 = getelementptr inbounds nuw %"struct.std::pair", ptr %7, i32 0, i32 0
  %9 = load ptr, ptr %5, align 8, !tbaa !51
  %10 = load ptr, ptr %9, align 8, !tbaa !8
  store ptr %10, ptr %8, align 8, !tbaa !181
  %11 = getelementptr inbounds nuw %"struct.std::pair", ptr %7, i32 0, i32 1
  %12 = load ptr, ptr %6, align 8, !tbaa !185
  %13 = load i8, ptr %12, align 1, !tbaa !183, !range !178, !noundef !179
  %14 = trunc i8 %13 to i1
  %15 = zext i1 %14 to i8
  store i8 %15, ptr %11, align 8, !tbaa !176
  ret void
}

; Function Attrs: mustprogress uwtable
define hidden void @_ZN25demodulator_rewriter_util13rewrite_cacheEP4exprS1_b(ptr noundef nonnull align 8 dereferenceable(408) %0, ptr noundef %1, ptr noundef %2, i1 noundef zeroext %3) #4 align 2 {
  %5 = alloca ptr, align 8
  %6 = alloca ptr, align 8
  %7 = alloca ptr, align 8
  %8 = alloca i8, align 1
  %9 = alloca %"struct.std::pair", align 8
  store ptr %0, ptr %5, align 8, !tbaa !130
  store ptr %1, ptr %6, align 8, !tbaa !8
  store ptr %2, ptr %7, align 8, !tbaa !8
  %10 = zext i1 %3 to i8
  store i8 %10, ptr %8, align 1, !tbaa !183
  %11 = load ptr, ptr %5, align 8
  %12 = getelementptr inbounds nuw %class.demodulator_rewriter_util, ptr %11, i32 0, i32 4
  call void @llvm.lifetime.start.p0(i64 16, ptr %9) #3
  call void @_ZNSt4pairIP4exprbEC2IRS1_RbQcl16_S_constructibleITL0__TL0_0_EEEEOT_OT0_(ptr noundef nonnull align 8 dereferenceable(9) %9, ptr noundef nonnull align 8 dereferenceable(8) %7, ptr noundef nonnull align 1 dereferenceable(1) %8) #3
  call void @_ZN9array_mapIP4exprSt4pairIS1_bEN25demodulator_rewriter_util6pluginELb1EE6insertERKS1_RKS3_(ptr noundef nonnull align 8 dereferenceable(32) %12, ptr noundef nonnull align 8 dereferenceable(8) %6, ptr noundef nonnull align 8 dereferenceable(9) %9)
  call void @llvm.lifetime.end.p0(i64 16, ptr %9) #3
  ret void
}