; Function Attrs: mustprogress uwtable
define hidden void @_ZN25demodulator_rewriter_util13rewrite_cacheEP4exprS1_b(ptr noundef nonnull align 8 dereferenceable(408) %0, ptr noundef %1, ptr noundef %2, i1 noundef zeroext %3) local_unnamed_addr #3 align 2 {
  %5 = alloca ptr, align 8
  %6 = alloca %"struct.std::pair", align 8
  store ptr %1, ptr %5, align 8, !tbaa !49
  %7 = zext i1 %3 to i8
  %8 = getelementptr inbounds nuw i8, ptr %0, i64 208
  call void @llvm.lifetime.start.p0(i64 16, ptr nonnull %6) #22
  store ptr %2, ptr %6, align 8, !tbaa !167
  %9 = getelementptr inbounds nuw i8, ptr %6, i64 8
  store i8 %7, ptr %9, align 8, !tbaa !164
  call void @_ZN9array_mapIP4exprSt4pairIS1_bEN25demodulator_rewriter_util6pluginELb1EE6insertERKS1_RKS3_(ptr noundef nonnull align 8 dereferenceable(32) %8, ptr noundef nonnull align 8 dereferenceable(8) %5, ptr noundef nonnull align 8 dereferenceable(9) %6)
  call void @llvm.lifetime.end.p0(i64 16, ptr nonnull %6) #22
  ret void
}